target datalayout = "e-m:e-p270:32:32-p271:32:32-p272:64:64-i64:64-i128:128-f80:128-n8:16:32:64-S128"
target triple = "x86_64-pc-linux-gnu"

@.str.188 = private unnamed_addr constant [8 x i8] c"TLSv1.2\00", align 1
@.str.267 = private unnamed_addr constant [6 x i8] c"TLSv1\00", align 1
@.str.268 = private unnamed_addr constant [8 x i8] c"TLSv1.1\00", align 1
@.str.269 = private unnamed_addr constant [8 x i8] c"TLSv1.3\00", align 1

; Function Attrs: nounwind uwtable
define internal zeroext i1 @sslVerifyProtocolVersion(ptr noundef %0) #0 {
  %2 = alloca i1, align 1
  %3 = alloca ptr, align 8
  store ptr %0, ptr %3, align 8
  %4 = load ptr, ptr %3, align 8
  %5 = icmp ne ptr %4, null
  br i1 %5, label %6, label %10

6:                                                ; preds = %1
  %7 = load ptr, ptr %3, align 8
  %8 = call i64 @strlen(ptr noundef %7) #13
  %9 = icmp eq i64 %8, 0
  br i1 %9, label %10, label %11

10:                                               ; preds = %6, %1
  store i1 true, ptr %2, align 1
  br label %29

11:                                               ; preds = %6
  %12 = load ptr, ptr %3, align 8
  %13 = call i32 @pg_strcasecmp(ptr noundef %12, ptr noundef @.str.267)
  %14 = icmp eq i32 %13, 0
  br i1 %14, label %27, label %15

15:                                               ; preds = %11
  %16 = load ptr, ptr %3, align 8
  %17 = call i32 @pg_strcasecmp(ptr noundef %16, ptr noundef @.str.268)
  %18 = icmp eq i32 %17, 0
  br i1 %18, label %27, label %19

19:                                               ; preds = %15
  %20 = load ptr, ptr %3, align 8
  %21 = call i32 @pg_strcasecmp(ptr noundef %20, ptr noundef @.str.188)
  %22 = icmp eq i32 %21, 0
  br i1 %22, label %27, label %23

23:                                               ; preds = %19
  %24 = load ptr, ptr %3, align 8
  %25 = call i32 @pg_strcasecmp(ptr noundef %24, ptr noundef @.str.269)
  %26 = icmp eq i32 %25, 0
  br i1 %26, label %27, label %28

27:                                               ; preds = %23, %19, %15, %11
  store i1 true, ptr %2, align 1
  br label %29

28:                                               ; preds = %23
  store i1 false, ptr %2, align 1
  br label %29

29:                                               ; preds = %28, %27, %10
  %30 = load i1, ptr %2, align 1
  ret i1 %30
}