; Function Attrs: nounwind uwtable
define internal fastcc zeroext i1 @sslVerifyProtocolVersion(ptr noundef %0) unnamed_addr #0 {
  %.not = icmp eq ptr %0, null
  br i1 %.not, label %16, label %2

2:                                                ; preds = %1
  %char0 = load i8, ptr %0, align 1
  %3 = icmp eq i8 %char0, 0
  br i1 %3, label %16, label %4

4:                                                ; preds = %2
  %5 = tail call i32 @pg_strcasecmp(ptr noundef nonnull %0, ptr noundef nonnull @.str.267) #25
  %6 = icmp eq i32 %5, 0
  br i1 %6, label %16, label %7

7:                                                ; preds = %4
  %8 = tail call i32 @pg_strcasecmp(ptr noundef nonnull %0, ptr noundef nonnull @.str.268) #25
  %9 = icmp eq i32 %8, 0
  br i1 %9, label %16, label %10

10:                                               ; preds = %7
  %11 = tail call i32 @pg_strcasecmp(ptr noundef nonnull %0, ptr noundef nonnull @.str.188) #25
  %12 = icmp eq i32 %11, 0
  br i1 %12, label %16, label %13

13:                                               ; preds = %10
  %14 = tail call i32 @pg_strcasecmp(ptr noundef nonnull %0, ptr noundef nonnull @.str.269) #25
  %15 = icmp eq i32 %14, 0
  br label %16

16:                                               ; preds = %13, %4, %7, %10, %1, %2
  %.0 = phi i1 [ true, %2 ], [ true, %1 ], [ true, %10 ], [ true, %7 ], [ true, %4 ], [ %15, %13 ]
  ret i1 %.0
}